; Function Attrs: mustprogress nofree norecurse nosync nounwind willreturn memory(argmem: write) uwtable
define internal void @_ZZN7rocksdb18WriteUnpreparedTxn27FlushWriteBatchToDBInternalEbEN19UntrackedKeyHandler8MarkNoopEb(ptr dead_on_unwind noalias writable writeonly sret(%"class.rocksdb::Status") align 8 captures(none) initializes((0, 6), (8, 16)) %0, ptr nonnull readnone align 8 captures(none) %1, i1 noundef zeroext %2) unnamed_addr #18 align 2 personality ptr @__gxx_personality_v0 {
  br i1 %2, label %4, label %5

4:                                                ; preds = %3
  tail call void @llvm.memset.p0.i64(ptr noundef nonnull align 8 dereferenceable(16) %0, i8 0, i64 6, i1 false), !alias.scope !637
  br label %8

5:                                                ; preds = %3
  store i8 4, ptr %0, align 8, !tbaa !273, !alias.scope !640
  %6 = getelementptr inbounds nuw i8, ptr %0, i64 1
  store i8 0, ptr %6, align 1, !tbaa !310, !alias.scope !640
  %7 = getelementptr inbounds nuw i8, ptr %0, i64 2
  store i32 0, ptr %7, align 2, !alias.scope !640
  br label %8

8:                                                ; preds = %5, %4
  %9 = getelementptr inbounds nuw i8, ptr %0, i64 8
  store ptr null, ptr %9, align 8, !tbaa !306
  ret void
}